target datalayout = "e-m:e-p270:32:32-p271:32:32-p272:64:64-i64:64-i128:128-f80:128-n8:16:32:64-S128"
target triple = "x86_64-pc-linux-gnu"

%struct.dt_variables_params_t = type { ptr, ptr, i32, i32, ptr, i32, i32, ptr }
%struct.dt_variables_data_t = type { ptr, ptr, ptr, ptr, i32, i32, i32, i32, i32, i32, i32, i32, i32, i32, i32, i32, ptr, ptr, ptr, i32, i32, i32, ptr, ptr, ptr, i32, i32, ptr, float, float, float, float, float, float, ptr, ptr, ptr, ptr, ptr, double, double, double, i32, i32 }

; Function Attrs: nounwind uwtable
define void @dt_variables_params_init(ptr noundef %0) #0 {
  %2 = alloca ptr, align 8
  store ptr %0, ptr %2, align 8, !tbaa !137
  %3 = call noalias ptr @g_malloc0(i64 noundef 48) #14
  %4 = load ptr, ptr %2, align 8, !tbaa !137
  store ptr %3, ptr %4, align 8, !tbaa !6
  %5 = call noalias ptr @g_malloc0(i64 noundef 256) #14
  %6 = load ptr, ptr %2, align 8, !tbaa !137
  %7 = load ptr, ptr %6, align 8, !tbaa !6
  %8 = getelementptr inbounds nuw %struct.dt_variables_params_t, ptr %7, i32 0, i32 4
  store ptr %5, ptr %8, align 8, !tbaa !15
  %9 = call ptr @g_date_time_new_now_local()
  %10 = load ptr, ptr %2, align 8, !tbaa !137
  %11 = load ptr, ptr %10, align 8, !tbaa !6
  %12 = getelementptr inbounds nuw %struct.dt_variables_params_t, ptr %11, i32 0, i32 4
  %13 = load ptr, ptr %12, align 8, !tbaa !15
  %14 = getelementptr inbounds nuw %struct.dt_variables_data_t, ptr %13, i32 0, i32 0
  store ptr %9, ptr %14, align 8, !tbaa !139
  %15 = load ptr, ptr %2, align 8, !tbaa !137
  %16 = load ptr, ptr %15, align 8, !tbaa !6
  %17 = getelementptr inbounds nuw %struct.dt_variables_params_t, ptr %16, i32 0, i32 4
  %18 = load ptr, ptr %17, align 8, !tbaa !15
  %19 = getelementptr inbounds nuw %struct.dt_variables_data_t, ptr %18, i32 0, i32 1
  store ptr null, ptr %19, align 8, !tbaa !131
  %20 = load ptr, ptr %2, align 8, !tbaa !137
  %21 = load ptr, ptr %20, align 8, !tbaa !6
  %22 = getelementptr inbounds nuw %struct.dt_variables_params_t, ptr %21, i32 0, i32 3
  store i32 -1, ptr %22, align 4, !tbaa !140
  %23 = load ptr, ptr %2, align 8, !tbaa !137
  %24 = load ptr, ptr %23, align 8, !tbaa !6
  %25 = getelementptr inbounds nuw %struct.dt_variables_params_t, ptr %24, i32 0, i32 7
  store ptr null, ptr %25, align 8, !tbaa !50
  ret void
}