; Function Attrs: nounwind uwtable
define void @dt_variables_params_init(ptr noundef captures(none) initializes((0, 8)) %0) local_unnamed_addr #0 {
  %2 = tail call noalias dereferenceable_or_null(48) ptr @g_malloc0(i64 noundef 48) #18
  store ptr %2, ptr %0, align 8, !tbaa !127
  %3 = tail call noalias dereferenceable_or_null(256) ptr @g_malloc0(i64 noundef 256) #18
  %4 = load ptr, ptr %0, align 8, !tbaa !127
  %5 = getelementptr inbounds nuw i8, ptr %4, i64 24
  store ptr %3, ptr %5, align 8, !tbaa !11
  %6 = tail call ptr @g_date_time_new_now_local() #16
  %7 = load ptr, ptr %0, align 8, !tbaa !127
  %8 = getelementptr inbounds nuw i8, ptr %7, i64 24
  %9 = load ptr, ptr %8, align 8, !tbaa !11
  store ptr %6, ptr %9, align 8, !tbaa !129
  %10 = getelementptr inbounds nuw i8, ptr %9, i64 8
  store ptr null, ptr %10, align 8, !tbaa !124
  %11 = getelementptr inbounds nuw i8, ptr %7, i64 20
  store i32 -1, ptr %11, align 4, !tbaa !130
  %12 = getelementptr inbounds nuw i8, ptr %7, i64 40
  store ptr null, ptr %12, align 8, !tbaa !38
  ret void
}